target datalayout = "e-m:e-p270:32:32-p271:32:32-p272:64:64-i64:64-i128:128-f80:128-n8:16:32:64-S128"
target triple = "x86_64-pc-linux-gnu"

%struct.lv_style_t = type { ptr, i32, i8 }

@style_text_muted = internal global %struct.lv_style_t zeroinitializer, align 8
@create_shop_item.grid_col_dsc = internal global [5 x i32] [i32 536870810, i32 5, i32 536870812, i32 536870812, i32 536870911], align 16
@create_shop_item.grid_row_dsc = internal global [3 x i32] [i32 536870812, i32 536870812, i32 536870911], align 4

; Function Attrs: nounwind uwtable
define internal ptr @create_shop_item(ptr noundef %0, ptr noundef %1, ptr noundef %2, ptr noundef %3, ptr noundef %4) #0 {
  %6 = alloca ptr, align 8
  %7 = alloca ptr, align 8
  %8 = alloca ptr, align 8
  %9 = alloca ptr, align 8
  %10 = alloca ptr, align 8
  %11 = alloca ptr, align 8
  %12 = alloca ptr, align 8
  %13 = alloca ptr, align 8
  store ptr %0, ptr %6, align 8, !tbaa !7
  store ptr %1, ptr %7, align 8, !tbaa !7
  store ptr %2, ptr %8, align 8, !tbaa !7
  store ptr %3, ptr %9, align 8, !tbaa !7
  store ptr %4, ptr %10, align 8, !tbaa !7
  call void @llvm.lifetime.start.p0(i64 8, ptr %11) #5
  %14 = load ptr, ptr %6, align 8, !tbaa !7
  %15 = call ptr @lv_obj_create(ptr noundef %14)
  store ptr %15, ptr %11, align 8, !tbaa !7
  %16 = load ptr, ptr %11, align 8, !tbaa !7
  call void @lv_obj_remove_style_all(ptr noundef %16)
  %17 = load ptr, ptr %11, align 8, !tbaa !7
  call void @lv_obj_set_size(ptr noundef %17, i32 noundef 536871012, i32 noundef 1073741823)
  %18 = load ptr, ptr %11, align 8, !tbaa !7
  call void @lv_obj_set_grid_dsc_array(ptr noundef %18, ptr noundef @create_shop_item.grid_col_dsc, ptr noundef @create_shop_item.grid_row_dsc)
  call void @llvm.lifetime.start.p0(i64 8, ptr %12) #5
  %19 = load ptr, ptr %11, align 8, !tbaa !7
  %20 = call ptr @lv_image_create(ptr noundef %19)
  store ptr %20, ptr %12, align 8, !tbaa !7
  %21 = load ptr, ptr %12, align 8, !tbaa !7
  %22 = load ptr, ptr %7, align 8, !tbaa !7
  call void @lv_image_set_src(ptr noundef %21, ptr noundef %22)
  %23 = load ptr, ptr %12, align 8, !tbaa !7
  call void @lv_obj_set_grid_cell(ptr noundef %23, i32 noundef 0, i32 noundef 0, i32 noundef 1, i32 noundef 0, i32 noundef 0, i32 noundef 2)
  call void @llvm.lifetime.start.p0(i64 8, ptr %13) #5
  %24 = load ptr, ptr %11, align 8, !tbaa !7
  %25 = call ptr @lv_label_create(ptr noundef %24)
  store ptr %25, ptr %13, align 8, !tbaa !7
  %26 = load ptr, ptr %13, align 8, !tbaa !7
  %27 = load ptr, ptr %8, align 8, !tbaa !7
  call void @lv_label_set_text_static(ptr noundef %26, ptr noundef %27)
  %28 = load ptr, ptr %13, align 8, !tbaa !7
  call void @lv_obj_set_grid_cell(ptr noundef %28, i32 noundef 0, i32 noundef 2, i32 noundef 1, i32 noundef 2, i32 noundef 0, i32 noundef 1)
  %29 = load ptr, ptr %11, align 8, !tbaa !7
  %30 = call ptr @lv_label_create(ptr noundef %29)
  store ptr %30, ptr %13, align 8, !tbaa !7
  %31 = load ptr, ptr %13, align 8, !tbaa !7
  %32 = load ptr, ptr %9, align 8, !tbaa !7
  call void @lv_label_set_text_static(ptr noundef %31, ptr noundef %32)
  %33 = load ptr, ptr %13, align 8, !tbaa !7
  call void @lv_obj_add_style(ptr noundef %33, ptr noundef @style_text_muted, i32 noundef 0)
  %34 = load ptr, ptr %13, align 8, !tbaa !7
  call void @lv_obj_set_grid_cell(ptr noundef %34, i32 noundef 0, i32 noundef 2, i32 noundef 1, i32 noundef 0, i32 noundef 1, i32 noundef 1)
  %35 = load ptr, ptr %11, align 8, !tbaa !7
  %36 = call ptr @lv_label_create(ptr noundef %35)
  store ptr %36, ptr %13, align 8, !tbaa !7
  %37 = load ptr, ptr %13, align 8, !tbaa !7
  %38 = load ptr, ptr %10, align 8, !tbaa !7
  call void @lv_label_set_text_static(ptr noundef %37, ptr noundef %38)
  %39 = load ptr, ptr %13, align 8, !tbaa !7
  call void @lv_obj_set_grid_cell(ptr noundef %39, i32 noundef 2, i32 noundef 3, i32 noundef 1, i32 noundef 2, i32 noundef 0, i32 noundef 1)
  %40 = load ptr, ptr %11, align 8, !tbaa !7
  call void @llvm.lifetime.end.p0(i64 8, ptr %13) #5
  call void @llvm.lifetime.end.p0(i64 8, ptr %12) #5
  call void @llvm.lifetime.end.p0(i64 8, ptr %11) #5
  ret ptr %40
}