; Function Attrs: nounwind uwtable
define internal fastcc void @create_shop_item(ptr noundef %0, ptr noundef %1) unnamed_addr #0 {
  %3 = tail call ptr @lv_obj_create(ptr noundef %0) #5
  tail call void @lv_obj_remove_style_all(ptr noundef %3) #5
  tail call void @lv_obj_set_size(ptr noundef %3, i32 noundef 536871012, i32 noundef 1073741823) #5
  tail call void @lv_obj_set_grid_dsc_array(ptr noundef %3, ptr noundef nonnull @create_shop_item.grid_col_dsc, ptr noundef nonnull @create_shop_item.grid_row_dsc) #5
  %4 = tail call ptr @lv_image_create(ptr noundef %3) #5
  tail call void @lv_image_set_src(ptr noundef %4, ptr noundef nonnull @img_clothes) #5
  tail call void @lv_obj_set_grid_cell(ptr noundef %4, i32 noundef 0, i32 noundef 0, i32 noundef 1, i32 noundef 0, i32 noundef 0, i32 noundef 2) #5
  %5 = tail call ptr @lv_label_create(ptr noundef %3) #5
  tail call void @lv_label_set_text_static(ptr noundef %5, ptr noundef nonnull @.str.104) #5
  tail call void @lv_obj_set_grid_cell(ptr noundef %5, i32 noundef 0, i32 noundef 2, i32 noundef 1, i32 noundef 2, i32 noundef 0, i32 noundef 1) #5
  %6 = tail call ptr @lv_label_create(ptr noundef %3) #5
  tail call void @lv_label_set_text_static(ptr noundef %6, ptr noundef nonnull @.str.105) #5
  tail call void @lv_obj_add_style(ptr noundef %6, ptr noundef nonnull @style_text_muted, i32 noundef 0) #5
  tail call void @lv_obj_set_grid_cell(ptr noundef %6, i32 noundef 0, i32 noundef 2, i32 noundef 1, i32 noundef 0, i32 noundef 1, i32 noundef 1) #5
  %7 = tail call ptr @lv_label_create(ptr noundef %3) #5
  tail call void @lv_label_set_text_static(ptr noundef %7, ptr noundef %1) #5
  tail call void @lv_obj_set_grid_cell(ptr noundef %7, i32 noundef 2, i32 noundef 3, i32 noundef 1, i32 noundef 2, i32 noundef 0, i32 noundef 1) #5
  ret void
}